target datalayout = "e-m:e-p270:32:32-p271:32:32-p272:64:64-i64:64-i128:128-f80:128-n8:16:32:64-S128"
target triple = "x86_64-pc-linux-gnu"

%struct.Mv = type { i32, i32 }
%struct.VVCLocalContext = type { i8, i8, i8, i8, i32, i32, [4 x i8], [3276800 x i8], [16384 x i16], [16384 x i16], [16384 x i16], [32768 x i8], [332800 x i8], [368640 x i8], [368640 x i8], [17424 x i32], %struct.anon, %struct.anon.0, ptr, [2 x [1024 x %struct.ReconstructedArea]], [2 x i32], %struct.NeighbourAvailable, i32, ptr, ptr, ptr, ptr }
%struct.anon = type { i32, i8, i32, i32, i32, [3 x i32], i32, i32, i32, i32, i32, i32 }
%struct.anon.0 = type { i32, i32, i32 }
%struct.ReconstructedArea = type { i32, i32, i32, i32 }
%struct.NeighbourAvailable = type { i32, i32, i32, i32, i32 }
%struct.PredWeightTable = type { [2 x i8], [2 x i8], [2 x [2 x [15 x i8]]], [2 x [3 x [15 x i16]]], [2 x [3 x [15 x i16]]] }
%struct.H266RawNALUnitHeader = type { i8, i8, i8, i8 }
%struct.H266RefPicListStruct = type { i8, i8, [29 x i8], [29 x i8], [29 x i8], [29 x i8], [29 x i8], [29 x i8] }
%struct.VVCFrameContext = type { ptr, [17 x %struct.VVCFrame], ptr, ptr, %struct.VVCFrameParamSets, ptr, i32, i32, ptr, %struct.VVCDSPContext, %struct.VideoDSPContext, ptr, i64, ptr, ptr, ptr, ptr, %struct.anon.1 }
%struct.VVCFrame = type { ptr, ptr, ptr, ptr, ptr, ptr, i32, i32, i32, %struct.VVCWindow, i32, i32, ptr, ptr, i16, i8, ptr }
%struct.VVCWindow = type { i16, i16, i16, i16 }
%struct.VVCFrameParamSets = type { ptr, ptr, %struct.VVCPH, [8 x ptr], %struct.VVCLMCS, ptr }
%struct.VVCPH = type { ptr, ptr, i32, i32, i8, [3 x i16], i8, [3 x i16], %struct.PredWeightTable }
%struct.VVCLMCS = type { i8, i8, %union.anon, %union.anon, [17 x i16], [16 x i16] }
%union.anon = type { [4096 x i16] }
%struct.VVCDSPContext = type { %struct.VVCInterDSPContext, %struct.VVCIntraDSPContext, %struct.VVCItxDSPContext, %struct.VVCLMCSDSPContext, %struct.VVCLFDSPContext, %struct.VVCSAODSPContext, %struct.VVCALFDSPContext }
%struct.VVCInterDSPContext = type { [2 x [7 x [2 x [2 x ptr]]]], [2 x [7 x [2 x [2 x ptr]]]], [2 x [7 x [2 x [2 x ptr]]]], [2 x [7 x ptr]], [2 x [7 x ptr]], [2 x [7 x ptr]], ptr, ptr, ptr, ptr, ptr, ptr, ptr, ptr, ptr, ptr, ptr, [2 x [2 x ptr]] }
%struct.VVCIntraDSPContext = type { ptr, ptr, ptr, ptr, ptr, ptr, ptr, ptr, ptr, ptr }
%struct.VVCItxDSPContext = type { ptr, ptr, [3 x [6 x ptr]], ptr, ptr }
%struct.VVCLMCSDSPContext = type { ptr }
%struct.VVCLFDSPContext = type { [2 x ptr], [2 x ptr], [2 x ptr] }
%struct.VVCSAODSPContext = type { [9 x ptr], [9 x ptr], [2 x ptr] }
%struct.VVCALFDSPContext = type { [2 x ptr], ptr, ptr, ptr }
%struct.VideoDSPContext = type { ptr, ptr }
%struct.anon.1 = type { ptr, ptr, ptr, ptr, [2 x ptr], [2 x ptr], [2 x ptr], [2 x ptr], [2 x ptr], [3 x ptr], ptr, ptr, [2 x ptr], ptr, ptr, [2 x ptr], ptr, ptr, ptr, [2 x ptr], ptr, [3 x ptr], ptr, [2 x ptr], [2 x ptr], [2 x ptr], [2 x [3 x ptr]], [2 x ptr], [2 x ptr], [3 x ptr], [3 x ptr], [3 x [2 x ptr]], [3 x [2 x ptr]], ptr, ptr, ptr, [3 x ptr], %struct.anon.2 }
%struct.anon.2 = type { i32, i32, i32, i32, i32, i32, i32, i32, i32, i32, i32, i32 }
%struct.VVCPPS = type { ptr, [3 x i8], [6 x [3 x i8]], i16, i16, [1000 x i16], [1000 x i16], i16, i16, i16, i16, i32, i16, i16, i16, i16, ptr, ptr, ptr, ptr, ptr, i16, i16, i16, i16, i16, [1000 x i16], [1000 x i16], [1000 x i16], [1000 x i16] }
%struct.MvField = type { [2 x %struct.Mv], [2 x i8], i8, i8, i8, i8 }
%struct.CodingUnit = type { i32, i32, i32, i32, i32, i32, i32, i8, i8, i8, i8, i32, i32, i8, i8, i8, i8, i8, i32, i32, i32, i32, i32, i32, [3 x i32], [3 x i32], %struct.anon.3, [4 x i8], [3 x %struct.Palette], [4 x i8], %struct.PredictionUnit, ptr }
%struct.anon.3 = type { ptr, ptr }
%struct.Palette = type { i8, [63 x i16] }
%struct.PredictionUnit = type { i8, i8, i8, i8, i8, i8, [2 x %struct.MvField], i32, %struct.MotionInfo, i8, i8, [2 x [16 x i16]], [2 x [16 x i16]], [2 x i32], [4 x i8] }
%struct.MotionInfo = type { i32, [2 x i8], i8, i8, i32, [2 x [3 x %struct.Mv]], i32, i32 }
%struct.VVCSPS = type { ptr, [3 x i8], [3 x i8], i32, i8, i32, i8, i8, i8, i16, i8, i8, i8, i8, i8, i8, i8, i8, [5 x i32], i8, i8, [3 x [111 x i8]] }
%struct.Neighbour = type { i32, i32, i32, i32 }
%struct.H266RawSPS = type { %struct.H266RawNALUnitHeader, i8, i8, i8, i8, i8, i8, %struct.H266RawProfileTierLevel, i8, i8, i8, i16, i16, i8, i16, i16, i16, i16, i8, i16, i8, i8, [1000 x i16], [1000 x i16], [1000 x i16], [1000 x i16], [1000 x i8], [1000 x i8], i8, i8, i8, [1000 x i32], i8, i8, i8, i8, i8, i8, i8, [16 x i8], i8, [16 x i8], i8, %struct.H266DpbParameters, i8, i8, i8, i8, i8, i8, i8, i8, i8, i8, i8, i8, i8, i8, i8, i8, i8, i8, i8, i8, i8, i8, i8, i8, i8, [3 x i8], [3 x i8], [3 x [111 x i8]], [3 x [111 x i8]], i8, i8, i8, i8, i8, i8, i8, i8, i8, i8, [2 x i8], [2 x [64 x %struct.H266RefPicListStruct]], i8, i8, i8, i8, i8, i8, i8, i8, i8, i8, i8, i8, i8, i8, i8, i8, i8, i8, i8, i8, i8, i8, i8, i8, i8, i8, i8, i8, i8, i8, i8, i8, i8, i8, i8, i8, i8, i8, [4 x i8], [4 x i16], i8, i8, i8, i8, i8, i8, i8, i8, i8, [3 x i16], i8, [3 x i16], i8, i8, %struct.H266RawGeneralTimingHrdParameters, %struct.H266RawOlsTimingHrdParameters, i8, i8, i16, %struct.H266RawVUI, i8, i8, i8, i8, i8, i8, i8, i8, %struct.H266RawExtensionData }
%struct.H266RawProfileTierLevel = type { i8, i8, i8, i8, i8, %struct.H266GeneralConstraintsInfo, [6 x i8], [6 x i8], i8, [256 x i32], i8 }
%struct.H266GeneralConstraintsInfo = type { i8, i8, i8, i8, i8, i8, i8, i8, i8, i8, i8, i8, i8, i8, i8, i8, i8, i8, i8, i8, i8, i8, i8, i8, i8, i8, i8, i8, i8, i8, i8, i8, i8, i8, i8, i8, i8, i8, i8, i8, i8, i8, i8, i8, i8, i8, i8, i8, i8, i8, i8, i8, i8, i8, i8, i8, i8, i8, i8, i8, i8, i8, i8, i8, i8, i8, i8, i8, [255 x i8], i8, i8, i8, i8, i8, i8 }
%struct.H266DpbParameters = type { [7 x i8], [7 x i8], [7 x i8] }
%struct.H266RawGeneralTimingHrdParameters = type { i32, i32, i8, i8, i8, i8, i8, i8, i8, i8, i8 }
%struct.H266RawOlsTimingHrdParameters = type { [7 x i8], [7 x i8], [7 x i16], [7 x i8], %struct.H266RawSubLayerHRDParameters, %struct.H266RawSubLayerHRDParameters }
%struct.H266RawSubLayerHRDParameters = type { [7 x [32 x i32]], [7 x [32 x i32]], [7 x [32 x i32]], [7 x [32 x i32]], [7 x [32 x i8]] }
%struct.H266RawVUI = type { i8, i8, i8, i8, i8, i8, i8, i16, i16, i8, i8, i8, i8, i8, i8, i8, i8, i8, i8, i8, %struct.H266RawExtensionData }
%struct.H266RawExtensionData = type { ptr, ptr, i64 }

@pred_flag_to_mode.lut = internal constant [9 x i32] [i32 1, i32 0, i32 0, i32 0, i32 0, i32 4, i32 0, i32 0, i32 3], align 16

; Function Attrs: alwaysinline nounwind uwtable
define internal i32 @is_same_mer(ptr noundef %0, i32 noundef %1, i32 noundef %2, i32 noundef %3, i32 noundef %4) #8 {
  %6 = alloca ptr, align 8
  %7 = alloca i32, align 4
  %8 = alloca i32, align 4
  %9 = alloca i32, align 4
  %10 = alloca i32, align 4
  %11 = alloca i8, align 1
  store ptr %0, ptr %6, align 8, !tbaa !78
  store i32 %1, ptr %7, align 4, !tbaa !9
  store i32 %2, ptr %8, align 4, !tbaa !9
  store i32 %3, ptr %9, align 4, !tbaa !9
  store i32 %4, ptr %10, align 4, !tbaa !9
  call void @llvm.lifetime.start.p0(i64 1, ptr %11) #9
  %12 = load ptr, ptr %6, align 8, !tbaa !78
  %13 = getelementptr inbounds nuw %struct.VVCFrameContext, ptr %12, i32 0, i32 4
  %14 = getelementptr inbounds nuw %struct.VVCFrameParamSets, ptr %13, i32 0, i32 0
  %15 = load ptr, ptr %14, align 8, !tbaa !140
  %16 = getelementptr inbounds nuw %struct.VVCSPS, ptr %15, i32 0, i32 19
  %17 = load i8, ptr %16, align 8, !tbaa !191
  store i8 %17, ptr %11, align 1, !tbaa !35
  %18 = load i32, ptr %7, align 4, !tbaa !9
  %19 = load i8, ptr %11, align 1, !tbaa !35
  %20 = zext i8 %19 to i32
  %21 = ashr i32 %18, %20
  %22 = load i32, ptr %9, align 4, !tbaa !9
  %23 = load i8, ptr %11, align 1, !tbaa !35
  %24 = zext i8 %23 to i32
  %25 = ashr i32 %22, %24
  %26 = icmp eq i32 %21, %25
  br i1 %26, label %27, label %37

27:                                               ; preds = %5
  %28 = load i32, ptr %8, align 4, !tbaa !9
  %29 = load i8, ptr %11, align 1, !tbaa !35
  %30 = zext i8 %29 to i32
  %31 = ashr i32 %28, %30
  %32 = load i32, ptr %10, align 4, !tbaa !9
  %33 = load i8, ptr %11, align 1, !tbaa !35
  %34 = zext i8 %33 to i32
  %35 = ashr i32 %32, %34
  %36 = icmp eq i32 %31, %35
  br label %37

37:                                               ; preds = %27, %5
  %38 = phi i1 [ false, %5 ], [ %36, %27 ]
  %39 = zext i1 %38 to i32
  call void @llvm.lifetime.end.p0(i64 1, ptr %11) #9
  ret i32 %39
}

; Function Attrs: alwaysinline nounwind uwtable
define internal i32 @pred_flag_to_mode(i32 noundef %0) #8 {
  %2 = alloca i32, align 4
  store i32 %0, ptr %2, align 4, !tbaa !9
  %3 = load i32, ptr %2, align 4, !tbaa !9
  %4 = zext i32 %3 to i64
  %5 = getelementptr inbounds nuw [9 x i32], ptr @pred_flag_to_mode.lut, i64 0, i64 %4
  %6 = load i32, ptr %5, align 4, !tbaa !9
  ret i32 %6
}

; Function Attrs: nounwind uwtable
define internal i32 @is_available(ptr noundef %0, i32 noundef %1, i32 noundef %2) #0 {
  %4 = alloca ptr, align 8
  %5 = alloca i32, align 4
  %6 = alloca i32, align 4
  %7 = alloca ptr, align 8
  %8 = alloca i32, align 4
  %9 = alloca i32, align 4
  %10 = alloca i32, align 4
  store ptr %0, ptr %4, align 8, !tbaa !78
  store i32 %1, ptr %5, align 4, !tbaa !9
  store i32 %2, ptr %6, align 4, !tbaa !9
  call void @llvm.lifetime.start.p0(i64 8, ptr %7) #9
  %11 = load ptr, ptr %4, align 8, !tbaa !78
  %12 = getelementptr inbounds nuw %struct.VVCFrameContext, ptr %11, i32 0, i32 4
  %13 = getelementptr inbounds nuw %struct.VVCFrameParamSets, ptr %12, i32 0, i32 0
  %14 = load ptr, ptr %13, align 8, !tbaa !140
  store ptr %14, ptr %7, align 8, !tbaa !167
  call void @llvm.lifetime.start.p0(i64 4, ptr %8) #9
  %15 = load i32, ptr %5, align 4, !tbaa !9
  %16 = load ptr, ptr %7, align 8, !tbaa !167
  %17 = getelementptr inbounds nuw %struct.VVCSPS, ptr %16, i32 0, i32 10
  %18 = load i8, ptr %17, align 2, !tbaa !141
  %19 = zext i8 %18 to i32
  %20 = ashr i32 %15, %19
  store i32 %20, ptr %8, align 4, !tbaa !9
  call void @llvm.lifetime.start.p0(i64 4, ptr %9) #9
  %21 = load i32, ptr %6, align 4, !tbaa !9
  %22 = load ptr, ptr %7, align 8, !tbaa !167
  %23 = getelementptr inbounds nuw %struct.VVCSPS, ptr %22, i32 0, i32 10
  %24 = load i8, ptr %23, align 2, !tbaa !141
  %25 = zext i8 %24 to i32
  %26 = ashr i32 %21, %25
  store i32 %26, ptr %9, align 4, !tbaa !9
  call void @llvm.lifetime.start.p0(i64 4, ptr %10) #9
  %27 = load ptr, ptr %4, align 8, !tbaa !78
  %28 = getelementptr inbounds nuw %struct.VVCFrameContext, ptr %27, i32 0, i32 4
  %29 = getelementptr inbounds nuw %struct.VVCFrameParamSets, ptr %28, i32 0, i32 1
  %30 = load ptr, ptr %29, align 8, !tbaa !80
  %31 = getelementptr inbounds nuw %struct.VVCPPS, ptr %30, i32 0, i32 7
  %32 = load i16, ptr %31, align 2, !tbaa !145
  %33 = zext i16 %32 to i32
  store i32 %33, ptr %10, align 4, !tbaa !9
  %34 = load ptr, ptr %4, align 8, !tbaa !78
  %35 = getelementptr inbounds nuw %struct.VVCFrameContext, ptr %34, i32 0, i32 17
  %36 = getelementptr inbounds nuw %struct.anon.1, ptr %35, i32 0, i32 6
  %37 = getelementptr inbounds [2 x ptr], ptr %36, i64 0, i64 0
  %38 = load ptr, ptr %37, align 8, !tbaa !181
  %39 = load i32, ptr %9, align 4, !tbaa !9
  %40 = load i32, ptr %10, align 4, !tbaa !9
  %41 = mul nsw i32 %39, %40
  %42 = load i32, ptr %8, align 4, !tbaa !9
  %43 = add nsw i32 %41, %42
  %44 = sext i32 %43 to i64
  %45 = getelementptr inbounds i8, ptr %38, i64 %44
  %46 = load i8, ptr %45, align 1, !tbaa !35
  %47 = zext i8 %46 to i32
  %48 = icmp ne i32 %47, 0
  %49 = zext i1 %48 to i32
  call void @llvm.lifetime.end.p0(i64 4, ptr %10) #9
  call void @llvm.lifetime.end.p0(i64 4, ptr %9) #9
  call void @llvm.lifetime.end.p0(i64 4, ptr %8) #9
  call void @llvm.lifetime.end.p0(i64 8, ptr %7) #9
  ret i32 %49
}

; Function Attrs: nounwind uwtable
define internal i32 @check_available(ptr noundef %0, ptr noundef %1, i32 noundef %2) #0 {
  %4 = alloca ptr, align 8
  %5 = alloca ptr, align 8
  %6 = alloca i32, align 4
  %7 = alloca ptr, align 8
  %8 = alloca ptr, align 8
  %9 = alloca ptr, align 8
  %10 = alloca ptr, align 8
  %11 = alloca i32, align 4
  store ptr %0, ptr %4, align 8, !tbaa !223
  store ptr %1, ptr %5, align 8, !tbaa !14
  store i32 %2, ptr %6, align 4, !tbaa !9
  call void @llvm.lifetime.start.p0(i64 8, ptr %7) #9
  %12 = load ptr, ptr %5, align 8, !tbaa !14
  %13 = getelementptr inbounds nuw %struct.VVCLocalContext, ptr %12, i32 0, i32 24
  %14 = load ptr, ptr %13, align 8, !tbaa !39
  store ptr %14, ptr %7, align 8, !tbaa !78
  call void @llvm.lifetime.start.p0(i64 8, ptr %8) #9
  %15 = load ptr, ptr %7, align 8, !tbaa !78
  %16 = getelementptr inbounds nuw %struct.VVCFrameContext, ptr %15, i32 0, i32 4
  %17 = getelementptr inbounds nuw %struct.VVCFrameParamSets, ptr %16, i32 0, i32 0
  %18 = load ptr, ptr %17, align 8, !tbaa !140
  store ptr %18, ptr %8, align 8, !tbaa !167
  call void @llvm.lifetime.start.p0(i64 8, ptr %9) #9
  %19 = load ptr, ptr %5, align 8, !tbaa !14
  %20 = getelementptr inbounds nuw %struct.VVCLocalContext, ptr %19, i32 0, i32 18
  %21 = load ptr, ptr %20, align 8, !tbaa !90
  store ptr %21, ptr %9, align 8, !tbaa !91
  call void @llvm.lifetime.start.p0(i64 8, ptr %10) #9
  %22 = load ptr, ptr %7, align 8, !tbaa !78
  %23 = getelementptr inbounds nuw %struct.VVCFrameContext, ptr %22, i32 0, i32 17
  %24 = getelementptr inbounds nuw %struct.anon.1, ptr %23, i32 0, i32 20
  %25 = load ptr, ptr %24, align 8, !tbaa !79
  store ptr %25, ptr %10, align 8, !tbaa !77
  call void @llvm.lifetime.start.p0(i64 4, ptr %11) #9
  %26 = load ptr, ptr %7, align 8, !tbaa !78
  %27 = getelementptr inbounds nuw %struct.VVCFrameContext, ptr %26, i32 0, i32 4
  %28 = getelementptr inbounds nuw %struct.VVCFrameParamSets, ptr %27, i32 0, i32 1
  %29 = load ptr, ptr %28, align 8, !tbaa !80
  %30 = getelementptr inbounds nuw %struct.VVCPPS, ptr %29, i32 0, i32 12
  %31 = load i16, ptr %30, align 8, !tbaa !81
  %32 = zext i16 %31 to i32
  store i32 %32, ptr %11, align 4, !tbaa !9
  %33 = load ptr, ptr %4, align 8, !tbaa !223
  %34 = getelementptr inbounds nuw %struct.Neighbour, ptr %33, i32 0, i32 2
  %35 = load i32, ptr %34, align 4, !tbaa !215
  %36 = icmp ne i32 %35, 0
  br i1 %36, label %141, label %37

37:                                               ; preds = %3
  %38 = load ptr, ptr %4, align 8, !tbaa !223
  %39 = getelementptr inbounds nuw %struct.Neighbour, ptr %38, i32 0, i32 2
  store i32 1, ptr %39, align 4, !tbaa !215
  %40 = load ptr, ptr %8, align 8, !tbaa !167
  %41 = getelementptr inbounds nuw %struct.VVCSPS, ptr %40, i32 0, i32 0
  %42 = load ptr, ptr %41, align 8, !tbaa !169
  %43 = getelementptr inbounds nuw %struct.H266RawSPS, ptr %42, i32 0, i32 33
  %44 = load i8, ptr %43, align 1, !tbaa !228
  %45 = icmp ne i8 %44, 0
  br i1 %45, label %46, label %64

46:                                               ; preds = %37
  %47 = load ptr, ptr %4, align 8, !tbaa !223
  %48 = getelementptr inbounds nuw %struct.Neighbour, ptr %47, i32 0, i32 0
  %49 = load i32, ptr %48, align 4, !tbaa !212
  %50 = load ptr, ptr %8, align 8, !tbaa !167
  %51 = getelementptr inbounds nuw %struct.VVCSPS, ptr %50, i32 0, i32 8
  %52 = load i8, ptr %51, align 2, !tbaa !225
  %53 = zext i8 %52 to i32
  %54 = ashr i32 %49, %53
  %55 = load ptr, ptr %9, align 8, !tbaa !91
  %56 = getelementptr inbounds nuw %struct.CodingUnit, ptr %55, i32 0, i32 1
  %57 = load i32, ptr %56, align 4, !tbaa !108
  %58 = load ptr, ptr %8, align 8, !tbaa !167
  %59 = getelementptr inbounds nuw %struct.VVCSPS, ptr %58, i32 0, i32 8
  %60 = load i8, ptr %59, align 2, !tbaa !225
  %61 = zext i8 %60 to i32
  %62 = ashr i32 %57, %61
  %63 = icmp sle i32 %54, %62
  br label %64

64:                                               ; preds = %46, %37
  %65 = phi i1 [ true, %37 ], [ %63, %46 ]
  %66 = zext i1 %65 to i32
  %67 = load ptr, ptr %4, align 8, !tbaa !223
  %68 = getelementptr inbounds nuw %struct.Neighbour, ptr %67, i32 0, i32 3
  store i32 %66, ptr %68, align 4, !tbaa !216
  %69 = load ptr, ptr %4, align 8, !tbaa !223
  %70 = getelementptr inbounds nuw %struct.Neighbour, ptr %69, i32 0, i32 3
  %71 = load i32, ptr %70, align 4, !tbaa !216
  %72 = icmp ne i32 %71, 0
  br i1 %72, label %73, label %106

73:                                               ; preds = %64
  %74 = load ptr, ptr %7, align 8, !tbaa !78
  %75 = load ptr, ptr %4, align 8, !tbaa !223
  %76 = getelementptr inbounds nuw %struct.Neighbour, ptr %75, i32 0, i32 0
  %77 = load i32, ptr %76, align 4, !tbaa !212
  %78 = load ptr, ptr %4, align 8, !tbaa !223
  %79 = getelementptr inbounds nuw %struct.Neighbour, ptr %78, i32 0, i32 1
  %80 = load i32, ptr %79, align 4, !tbaa !214
  %81 = call i32 @is_available(ptr noundef %74, i32 noundef %77, i32 noundef %80)
  %82 = icmp ne i32 %81, 0
  br i1 %82, label %83, label %106

83:                                               ; preds = %73
  %84 = load ptr, ptr %9, align 8, !tbaa !91
  %85 = getelementptr inbounds nuw %struct.CodingUnit, ptr %84, i32 0, i32 19
  %86 = load i32, ptr %85, align 4, !tbaa !188
  %87 = load ptr, ptr %10, align 8, !tbaa !77
  %88 = load ptr, ptr %4, align 8, !tbaa !223
  %89 = getelementptr inbounds nuw %struct.Neighbour, ptr %88, i32 0, i32 1
  %90 = load i32, ptr %89, align 4, !tbaa !214
  %91 = ashr i32 %90, 2
  %92 = load i32, ptr %11, align 4, !tbaa !9
  %93 = mul nsw i32 %91, %92
  %94 = load ptr, ptr %4, align 8, !tbaa !223
  %95 = getelementptr inbounds nuw %struct.Neighbour, ptr %94, i32 0, i32 0
  %96 = load i32, ptr %95, align 4, !tbaa !212
  %97 = ashr i32 %96, 2
  %98 = add nsw i32 %93, %97
  %99 = sext i32 %98 to i64
  %100 = getelementptr inbounds %struct.MvField, ptr %87, i64 %99
  %101 = getelementptr inbounds nuw %struct.MvField, ptr %100, i32 0, i32 4
  %102 = load i8, ptr %101, align 4, !tbaa !110
  %103 = zext i8 %102 to i32
  %104 = call i32 @pred_flag_to_mode(i32 noundef %103)
  %105 = icmp eq i32 %86, %104
  br label %106

106:                                              ; preds = %83, %73, %64
  %107 = phi i1 [ false, %73 ], [ false, %64 ], [ %105, %83 ]
  %108 = zext i1 %107 to i32
  %109 = load ptr, ptr %4, align 8, !tbaa !223
  %110 = getelementptr inbounds nuw %struct.Neighbour, ptr %109, i32 0, i32 3
  store i32 %108, ptr %110, align 4, !tbaa !216
  %111 = load i32, ptr %6, align 4, !tbaa !9
  %112 = icmp ne i32 %111, 0
  br i1 %112, label %113, label %140

113:                                              ; preds = %106
  %114 = load ptr, ptr %4, align 8, !tbaa !223
  %115 = getelementptr inbounds nuw %struct.Neighbour, ptr %114, i32 0, i32 3
  %116 = load i32, ptr %115, align 4, !tbaa !216
  %117 = icmp ne i32 %116, 0
  br i1 %117, label %118, label %135

118:                                              ; preds = %113
  %119 = load ptr, ptr %7, align 8, !tbaa !78
  %120 = load ptr, ptr %4, align 8, !tbaa !223
  %121 = getelementptr inbounds nuw %struct.Neighbour, ptr %120, i32 0, i32 0
  %122 = load i32, ptr %121, align 4, !tbaa !212
  %123 = load ptr, ptr %4, align 8, !tbaa !223
  %124 = getelementptr inbounds nuw %struct.Neighbour, ptr %123, i32 0, i32 1
  %125 = load i32, ptr %124, align 4, !tbaa !214
  %126 = load ptr, ptr %9, align 8, !tbaa !91
  %127 = getelementptr inbounds nuw %struct.CodingUnit, ptr %126, i32 0, i32 1
  %128 = load i32, ptr %127, align 4, !tbaa !108
  %129 = load ptr, ptr %9, align 8, !tbaa !91
  %130 = getelementptr inbounds nuw %struct.CodingUnit, ptr %129, i32 0, i32 2
  %131 = load i32, ptr %130, align 8, !tbaa !109
  %132 = call i32 @is_same_mer(ptr noundef %119, i32 noundef %122, i32 noundef %125, i32 noundef %128, i32 noundef %131)
  %133 = icmp ne i32 %132, 0
  %134 = xor i1 %133, true
  br label %135

135:                                              ; preds = %118, %113
  %136 = phi i1 [ false, %113 ], [ %134, %118 ]
  %137 = zext i1 %136 to i32
  %138 = load ptr, ptr %4, align 8, !tbaa !223
  %139 = getelementptr inbounds nuw %struct.Neighbour, ptr %138, i32 0, i32 3
  store i32 %137, ptr %139, align 4, !tbaa !216
  br label %140

140:                                              ; preds = %135, %106
  br label %141

141:                                              ; preds = %140, %3
  %142 = load ptr, ptr %4, align 8, !tbaa !223
  %143 = getelementptr inbounds nuw %struct.Neighbour, ptr %142, i32 0, i32 3
  %144 = load i32, ptr %143, align 4, !tbaa !216
  call void @llvm.lifetime.end.p0(i64 4, ptr %11) #9
  call void @llvm.lifetime.end.p0(i64 8, ptr %10) #9
  call void @llvm.lifetime.end.p0(i64 8, ptr %9) #9
  call void @llvm.lifetime.end.p0(i64 8, ptr %8) #9
  call void @llvm.lifetime.end.p0(i64 8, ptr %7) #9
  ret i32 %144
}