; Function Attrs: mustprogress nofree norecurse nosync nounwind willreturn memory(read, argmem: readwrite, inaccessiblemem: none) uwtable
define internal fastcc i32 @check_available(ptr noundef nonnull captures(none) %0, ptr readonly captures(none) %.4547736.val, ptr readonly captures(none) %.4580552.val, i32 noundef range(i32 0, 2) %1) unnamed_addr #10 {
  %3 = getelementptr inbounds nuw i8, ptr %.4580552.val, i64 1928
  %4 = load ptr, ptr %3, align 8, !tbaa !104
  %5 = getelementptr inbounds nuw i8, ptr %.4580552.val, i64 21576
  %6 = load ptr, ptr %5, align 8, !tbaa !71
  %7 = getelementptr inbounds nuw i8, ptr %.4580552.val, i64 1936
  %8 = load ptr, ptr %7, align 8, !tbaa !72
  %9 = getelementptr inbounds nuw i8, ptr %8, i64 4048
  %10 = load i16, ptr %9, align 8, !tbaa !73
  %11 = zext i16 %10 to i32
  %12 = getelementptr inbounds nuw i8, ptr %0, i64 8
  %13 = load i32, ptr %12, align 4, !tbaa !160
  %.not = icmp eq i32 %13, 0
  br i1 %.not, label %14, label %90

14:                                               ; preds = %2
  store i32 1, ptr %12, align 4, !tbaa !160
  %15 = load ptr, ptr %4, align 8, !tbaa !162
  %16 = getelementptr inbounds nuw i8, ptr %15, i64 15417
  %17 = load i8, ptr %16, align 1, !tbaa !163
  %.not31 = icmp eq i8 %17, 0
  br i1 %.not31, label %.thread, label %19

.thread:                                          ; preds = %14
  %18 = getelementptr inbounds nuw i8, ptr %0, i64 12
  store i32 1, ptr %18, align 4, !tbaa !161
  %.pre = load i32, ptr %0, align 4, !tbaa !155
  br label %31

19:                                               ; preds = %14
  %20 = load i32, ptr %0, align 4, !tbaa !155
  %21 = getelementptr inbounds nuw i8, ptr %4, i64 30
  %22 = load i8, ptr %21, align 2, !tbaa !144
  %23 = zext i8 %22 to i32
  %24 = ashr i32 %20, %23
  %25 = getelementptr inbounds nuw i8, ptr %.4547736.val, i64 4
  %26 = load i32, ptr %25, align 4, !tbaa !90
  %27 = ashr i32 %26, %23
  %28 = icmp sle i32 %24, %27
  %29 = zext i1 %28 to i32
  %30 = getelementptr inbounds nuw i8, ptr %0, i64 12
  store i32 %29, ptr %30, align 4, !tbaa !161
  br i1 %28, label %31, label %65

31:                                               ; preds = %.thread, %19
  %32 = phi i32 [ %.pre, %.thread ], [ %20, %19 ]
  %33 = phi ptr [ %18, %.thread ], [ %30, %19 ]
  %34 = getelementptr inbounds nuw i8, ptr %0, i64 4
  %35 = load i32, ptr %34, align 4, !tbaa !157
  %36 = getelementptr inbounds nuw i8, ptr %4, i64 34
  %37 = load i8, ptr %36, align 2, !tbaa !105
  %38 = zext i8 %37 to i32
  %39 = ashr i32 %32, %38
  %40 = ashr i32 %35, %38
  %41 = getelementptr inbounds nuw i8, ptr %8, i64 4034
  %42 = load i16, ptr %41, align 2, !tbaa !109
  %43 = zext i16 %42 to i32
  %44 = getelementptr inbounds nuw i8, ptr %.4580552.val, i64 21400
  %45 = load ptr, ptr %44, align 8, !tbaa !147
  %46 = mul nsw i32 %40, %43
  %47 = add nsw i32 %46, %39
  %48 = sext i32 %47 to i64
  %49 = getelementptr inbounds i8, ptr %45, i64 %48
  %50 = load i8, ptr %49, align 1, !tbaa !29
  %.not1 = icmp eq i8 %50, 0
  br i1 %.not1, label %65, label %51

51:                                               ; preds = %31
  %52 = getelementptr inbounds nuw i8, ptr %.4547736.val, i64 52
  %53 = load i32, ptr %52, align 4, !tbaa !175
  %54 = ashr i32 %35, 2
  %55 = mul nsw i32 %54, %11
  %56 = ashr i32 %32, 2
  %57 = add nsw i32 %55, %56
  %58 = sext i32 %57 to i64
  %59 = getelementptr inbounds %struct.MvField, ptr %6, i64 %58, i32 4
  %60 = load i8, ptr %59, align 4, !tbaa !92
  %61 = zext i8 %60 to i64
  %62 = getelementptr inbounds nuw [9 x i32], ptr @pred_flag_to_mode.lut, i64 0, i64 %61
  %63 = load i32, ptr %62, align 4, !tbaa !131
  %64 = icmp eq i32 %53, %63
  br label %65

65:                                               ; preds = %51, %31, %19
  %66 = phi i32 [ %32, %31 ], [ %20, %19 ], [ %32, %51 ]
  %67 = phi ptr [ %33, %31 ], [ %30, %19 ], [ %33, %51 ]
  %68 = phi i1 [ false, %31 ], [ false, %19 ], [ %64, %51 ]
  %69 = zext i1 %68 to i32
  store i32 %69, ptr %67, align 4, !tbaa !161
  %.not33 = icmp eq i32 %1, 0
  br i1 %.not33, label %90, label %70

70:                                               ; preds = %65
  br i1 %68, label %71, label %88

71:                                               ; preds = %70
  %72 = getelementptr inbounds nuw i8, ptr %0, i64 4
  %73 = load i32, ptr %72, align 4, !tbaa !157
  %74 = getelementptr inbounds nuw i8, ptr %.4547736.val, i64 4
  %75 = load i32, ptr %74, align 4, !tbaa !90
  %76 = getelementptr inbounds nuw i8, ptr %.4547736.val, i64 8
  %77 = load i32, ptr %76, align 8, !tbaa !91
  %78 = getelementptr inbounds nuw i8, ptr %4, i64 64
  %79 = load i8, ptr %78, align 8, !tbaa !176
  %80 = zext i8 %79 to i32
  %81 = ashr i32 %66, %80
  %82 = ashr i32 %75, %80
  %83 = icmp ne i32 %81, %82
  %84 = ashr i32 %73, %80
  %85 = ashr i32 %77, %80
  %86 = icmp ne i32 %84, %85
  %narrow.not = select i1 %83, i1 true, i1 %86
  %87 = zext i1 %narrow.not to i32
  br label %88

88:                                               ; preds = %71, %70
  %89 = phi i32 [ 0, %70 ], [ %87, %71 ]
  store i32 %89, ptr %67, align 4, !tbaa !161
  br label %90

90:                                               ; preds = %65, %88, %2
  %91 = getelementptr inbounds nuw i8, ptr %0, i64 12
  %92 = load i32, ptr %91, align 4, !tbaa !161
  ret i32 %92
}